(dp0
S'drill_size'
p1
F5.0
sS'ystep'
p2
F5.4
sS'offset'
p3
I-14
sS'drill_angle'
p4
F45.0
sS'pitch'
p5
F0.0
sS'amp'
p6
I0
sS'freq'
p7
F9.4
sS'lockxy'
p8
I1
sS'num_lines'
p9
I18
sS'invert'
p10
I1
sS'xstep'
p11
F5.4
sS'drill'
p12
I1
sS'show_image'
p13
I0
sS'real_width'
p14
F133.0
sS'z_range'
p15
F2.21
s.